target datalayout = "e-m:e-p270:32:32-p271:32:32-p272:64:64-i64:64-i128:128-f80:128-n8:16:32:64-S128"
target triple = "x86_64-pc-linux-gnu"

; Function Attrs: nounwind uwtable
define hidden void @ma_copy_and_apply_volume_factor_s24(ptr noundef %0, ptr noundef %1, i64 noundef %2, float noundef %3) #0 {
  %5 = alloca ptr, align 8
  %6 = alloca ptr, align 8
  %7 = alloca i64, align 8
  %8 = alloca float, align 4
  %9 = alloca i64, align 8
  %10 = alloca ptr, align 8
  %11 = alloca ptr, align 8
  %12 = alloca i32, align 4
  %13 = alloca i32, align 4
  store ptr %0, ptr %5, align 8
  store ptr %1, ptr %6, align 8
  store i64 %2, ptr %7, align 8
  store float %3, ptr %8, align 4
  call void @llvm.lifetime.start.p0(i64 8, ptr %9) #21
  call void @llvm.lifetime.start.p0(i64 8, ptr %10) #21
  call void @llvm.lifetime.start.p0(i64 8, ptr %11) #21
  %14 = load ptr, ptr %5, align 8
  %15 = icmp eq ptr %14, null
  br i1 %15, label %19, label %16

16:                                               ; preds = %4
  %17 = load ptr, ptr %6, align 8
  %18 = icmp eq ptr %17, null
  br i1 %18, label %19, label %20

19:                                               ; preds = %16, %4
  store i32 1, ptr %12, align 4
  br label %90

20:                                               ; preds = %16
  %21 = load ptr, ptr %5, align 8
  store ptr %21, ptr %10, align 8
  %22 = load ptr, ptr %6, align 8
  store ptr %22, ptr %11, align 8
  store i64 0, ptr %9, align 8
  br label %23

23:                                               ; preds = %86, %20
  %24 = load i64, ptr %9, align 8
  %25 = load i64, ptr %7, align 8
  %26 = icmp ult i64 %24, %25
  br i1 %26, label %27, label %89

27:                                               ; preds = %23
  call void @llvm.lifetime.start.p0(i64 4, ptr %13) #21
  %28 = load ptr, ptr %11, align 8
  %29 = load i64, ptr %9, align 8
  %30 = mul i64 %29, 3
  %31 = add i64 %30, 0
  %32 = getelementptr inbounds nuw i8, ptr %28, i64 %31
  %33 = load i8, ptr %32, align 1
  %34 = zext i8 %33 to i32
  %35 = shl i32 %34, 8
  %36 = load ptr, ptr %11, align 8
  %37 = load i64, ptr %9, align 8
  %38 = mul i64 %37, 3
  %39 = add i64 %38, 1
  %40 = getelementptr inbounds nuw i8, ptr %36, i64 %39
  %41 = load i8, ptr %40, align 1
  %42 = zext i8 %41 to i32
  %43 = shl i32 %42, 16
  %44 = or i32 %35, %43
  %45 = load ptr, ptr %11, align 8
  %46 = load i64, ptr %9, align 8
  %47 = mul i64 %46, 3
  %48 = add i64 %47, 2
  %49 = getelementptr inbounds nuw i8, ptr %45, i64 %48
  %50 = load i8, ptr %49, align 1
  %51 = zext i8 %50 to i32
  %52 = shl i32 %51, 24
  %53 = or i32 %44, %52
  store i32 %53, ptr %13, align 4
  %54 = load i32, ptr %13, align 4
  %55 = sitofp i32 %54 to float
  %56 = load float, ptr %8, align 4
  %57 = fmul float %55, %56
  %58 = fptosi float %57 to i32
  store i32 %58, ptr %13, align 4
  %59 = load i32, ptr %13, align 4
  %60 = and i32 %59, 65280
  %61 = lshr i32 %60, 8
  %62 = trunc i32 %61 to i8
  %63 = load ptr, ptr %10, align 8
  %64 = load i64, ptr %9, align 8
  %65 = mul i64 %64, 3
  %66 = add i64 %65, 0
  %67 = getelementptr inbounds nuw i8, ptr %63, i64 %66
  store i8 %62, ptr %67, align 1
  %68 = load i32, ptr %13, align 4
  %69 = and i32 %68, 16711680
  %70 = lshr i32 %69, 16
  %71 = trunc i32 %70 to i8
  %72 = load ptr, ptr %10, align 8
  %73 = load i64, ptr %9, align 8
  %74 = mul i64 %73, 3
  %75 = add i64 %74, 1
  %76 = getelementptr inbounds nuw i8, ptr %72, i64 %75
  store i8 %71, ptr %76, align 1
  %77 = load i32, ptr %13, align 4
  %78 = and i32 %77, -16777216
  %79 = lshr i32 %78, 24
  %80 = trunc i32 %79 to i8
  %81 = load ptr, ptr %10, align 8
  %82 = load i64, ptr %9, align 8
  %83 = mul i64 %82, 3
  %84 = add i64 %83, 2
  %85 = getelementptr inbounds nuw i8, ptr %81, i64 %84
  store i8 %80, ptr %85, align 1
  call void @llvm.lifetime.end.p0(i64 4, ptr %13) #21
  br label %86

86:                                               ; preds = %27
  %87 = load i64, ptr %9, align 8
  %88 = add i64 %87, 1
  store i64 %88, ptr %9, align 8
  br label %23

89:                                               ; preds = %23
  store i32 0, ptr %12, align 4
  br label %90

90:                                               ; preds = %89, %19
  call void @llvm.lifetime.end.p0(i64 8, ptr %11) #21
  call void @llvm.lifetime.end.p0(i64 8, ptr %10) #21
  call void @llvm.lifetime.end.p0(i64 8, ptr %9) #21
  %91 = load i32, ptr %12, align 4
  switch i32 %91, label %93 [
    i32 0, label %92
    i32 1, label %92
  ]

92:                                               ; preds = %90, %90
  ret void

93:                                               ; preds = %90
  unreachable
}

; Function Attrs: nounwind uwtable
define hidden void @ma_apply_volume_factor_s24(ptr noundef %0, i64 noundef %1, float noundef %2) #0 {
  %4 = alloca ptr, align 8
  %5 = alloca i64, align 8
  %6 = alloca float, align 4
  store ptr %0, ptr %4, align 8
  store i64 %1, ptr %5, align 8
  store float %2, ptr %6, align 4
  %7 = load ptr, ptr %4, align 8
  %8 = load ptr, ptr %4, align 8
  %9 = load i64, ptr %5, align 8
  %10 = load float, ptr %6, align 4
  call void @ma_copy_and_apply_volume_factor_s24(ptr noundef %7, ptr noundef %8, i64 noundef %9, float noundef %10)
  ret void
}