; Function Attrs: nofree norecurse nosync nounwind memory(argmem: readwrite) uwtable
define hidden void @ma_apply_volume_factor_s24(ptr noundef captures(address_is_null) %0, i64 noundef %1, float noundef %2) local_unnamed_addr #23 {
  %4 = icmp ne ptr %0, null
  %5 = icmp ne i64 %1, 0
  %or.cond27.i = and i1 %4, %5
  br i1 %or.cond27.i, label %.lr.ph.i.preheader, label %ma_copy_and_apply_volume_factor_s24.exit

.lr.ph.i.preheader:                               ; preds = %3
  %invariant.gep = getelementptr i8, ptr %0, i64 1
  %invariant.gep3 = getelementptr i8, ptr %0, i64 2
  br label %.lr.ph.i

.lr.ph.i:                                         ; preds = %.lr.ph.i.preheader, %.lr.ph.i
  %.026.i = phi i64 [ %28, %.lr.ph.i ], [ 0, %.lr.ph.i.preheader ]
  %6 = mul i64 %.026.i, 3
  %7 = getelementptr inbounds nuw i8, ptr %0, i64 %6
  %8 = load i8, ptr %7, align 1
  %9 = zext i8 %8 to i32
  %10 = shl nuw nsw i32 %9, 8
  %gep = getelementptr i8, ptr %invariant.gep, i64 %6
  %11 = load i8, ptr %gep, align 1
  %12 = zext i8 %11 to i32
  %13 = shl nuw nsw i32 %12, 16
  %14 = or disjoint i32 %13, %10
  %gep4 = getelementptr i8, ptr %invariant.gep3, i64 %6
  %15 = load i8, ptr %gep4, align 1
  %16 = zext i8 %15 to i32
  %17 = shl nuw i32 %16, 24
  %18 = or disjoint i32 %14, %17
  %19 = sitofp i32 %18 to float
  %20 = fmul float %2, %19
  %21 = fptosi float %20 to i32
  %22 = lshr i32 %21, 8
  %23 = trunc i32 %22 to i8
  store i8 %23, ptr %7, align 1
  %24 = lshr i32 %21, 16
  %25 = trunc i32 %24 to i8
  store i8 %25, ptr %gep, align 1
  %26 = lshr i32 %21, 24
  %27 = trunc nuw i32 %26 to i8
  store i8 %27, ptr %gep4, align 1
  %28 = add nuw i64 %.026.i, 1
  %exitcond.not.i = icmp eq i64 %28, %1
  br i1 %exitcond.not.i, label %ma_copy_and_apply_volume_factor_s24.exit, label %.lr.ph.i

ma_copy_and_apply_volume_factor_s24.exit:         ; preds = %.lr.ph.i, %3
  ret void
}